; ModuleID = '50/1552.c'
source_filename = "50/1552.c"
target datalayout = "e-m:e-p270:32:32-p271:32:32-p272:64:64-i64:64-f80:128-n8:16:32:64-S128"
target triple = "x86_64-pc-linux-gnu"

@.str = private unnamed_addr constant [3 x i8] c"%d\00", align 1
@.str.1 = private unnamed_addr constant [4 x i8] c"%d\0A\00", align 1

; Function Attrs: noinline nounwind uwtable
define dso_local i32 @main() #0 {
  %1 = alloca i32, align 4
  %2 = alloca i32, align 4
  %3 = alloca i32, align 4
  store i32 0, i32* %1, align 4
  %4 = call i32 (i8*, ...) @__isoc99_scanf(i8* getelementptr inbounds ([3 x i8], [3 x i8]* @.str, i64 0, i64 0), i32* %2)
  store i32 1, i32* %3, align 4
  br label %5

5:                                                ; preds = %28, %0
  %6 = load i32, i32* %3, align 4
  %7 = icmp sle i32 %6, 12
  br i1 %7, label %8, label %31

8:                                                ; preds = %5
  %9 = load i32, i32* %3, align 4
  %10 = call i32 @f(i32 %9)
  %11 = srem i32 %10, 7
  %12 = load i32, i32* %2, align 4
  %13 = add nsw i32 %11, %12
  %14 = sub nsw i32 %13, 1
  %15 = icmp eq i32 %14, 5
  br i1 %15, label %24, label %16

16:                                               ; preds = %8
  %17 = load i32, i32* %3, align 4
  %18 = call i32 @f(i32 %17)
  %19 = srem i32 %18, 7
  %20 = load i32, i32* %2, align 4
  %21 = add nsw i32 %19, %20
  %22 = sub nsw i32 %21, 1
  %23 = icmp eq i32 %22, 12
  br i1 %23, label %24, label %27

24:                                               ; preds = %16, %8
  %25 = load i32, i32* %3, align 4
  %26 = call i32 (i8*, ...) @printf(i8* getelementptr inbounds ([4 x i8], [4 x i8]* @.str.1, i64 0, i64 0), i32 %25)
  br label %27

27:                                               ; preds = %24, %16
  br label %28

28:                                               ; preds = %27
  %29 = load i32, i32* %3, align 4
  %30 = add nsw i32 %29, 1
  store i32 %30, i32* %3, align 4
  br label %5

31:                                               ; preds = %5
  ret i32 0
}

declare dso_local i32 @__isoc99_scanf(i8*, ...) #1

; Function Attrs: noinline nounwind uwtable
define dso_local i32 @f(i32 %0) #0 {
  %2 = alloca i32, align 4
  %3 = alloca i32, align 4
  store i32 %0, i32* %2, align 4
  %4 = load i32, i32* %2, align 4
  %5 = icmp eq i32 %4, 1
  br i1 %5, label %6, label %7

6:                                                ; preds = %1
  store i32 13, i32* %3, align 4
  br label %7

7:                                                ; preds = %6, %1
  %8 = load i32, i32* %2, align 4
  %9 = icmp eq i32 %8, 2
  br i1 %9, label %10, label %11

10:                                               ; preds = %7
  store i32 44, i32* %3, align 4
  br label %11

11:                                               ; preds = %10, %7
  %12 = load i32, i32* %2, align 4
  %13 = icmp eq i32 %12, 3
  br i1 %13, label %14, label %15

14:                                               ; preds = %11
  store i32 72, i32* %3, align 4
  br label %15

15:                                               ; preds = %14, %11
  %16 = load i32, i32* %2, align 4
  %17 = icmp eq i32 %16, 4
  br i1 %17, label %18, label %19

18:                                               ; preds = %15
  store i32 103, i32* %3, align 4
  br label %19

19:                                               ; preds = %18, %15
  %20 = load i32, i32* %2, align 4
  %21 = icmp eq i32 %20, 5
  br i1 %21, label %22, label %23

22:                                               ; preds = %19
  store i32 133, i32* %3, align 4
  br label %23

23:                                               ; preds = %22, %19
  %24 = load i32, i32* %2, align 4
  %25 = icmp eq i32 %24, 6
  br i1 %25, label %26, label %27

26:                                               ; preds = %23
  store i32 164, i32* %3, align 4
  br label %27

27:                                               ; preds = %26, %23
  %28 = load i32, i32* %2, align 4
  %29 = icmp eq i32 %28, 7
  br i1 %29, label %30, label %31

30:                                               ; preds = %27
  store i32 194, i32* %3, align 4
  br label %31

31:                                               ; preds = %30, %27
  %32 = load i32, i32* %2, align 4
  %33 = icmp eq i32 %32, 8
  br i1 %33, label %34, label %35

34:                                               ; preds = %31
  store i32 225, i32* %3, align 4
  br label %35

35:                                               ; preds = %34, %31
  %36 = load i32, i32* %2, align 4
  %37 = icmp eq i32 %36, 9
  br i1 %37, label %38, label %39

38:                                               ; preds = %35
  store i32 256, i32* %3, align 4
  br label %39

39:                                               ; preds = %38, %35
  %40 = load i32, i32* %2, align 4
  %41 = icmp eq i32 %40, 10
  br i1 %41, label %42, label %43

42:                                               ; preds = %39
  store i32 286, i32* %3, align 4
  br label %43

43:                                               ; preds = %42, %39
  %44 = load i32, i32* %2, align 4
  %45 = icmp eq i32 %44, 11
  br i1 %45, label %46, label %47

46:                                               ; preds = %43
  store i32 317, i32* %3, align 4
  br label %47

47:                                               ; preds = %46, %43
  %48 = load i32, i32* %2, align 4
  %49 = icmp eq i32 %48, 12
  br i1 %49, label %50, label %51

50:                                               ; preds = %47
  store i32 347, i32* %3, align 4
  br label %51

51:                                               ; preds = %50, %47
  %52 = load i32, i32* %3, align 4
  ret i32 %52
}

declare dso_local i32 @printf(i8*, ...) #1


!llvm.module.flags = !{!0}
!llvm.ident = !{!1}

!0 = !{i32 1, !"wchar_size", i32 4}
!1 = !{!"clang version 10.0.0-4ubuntu1 "}
